target datalayout = "e-m:e-p270:32:32-p271:32:32-p272:64:64-i64:64-i128:128-f80:128-n8:16:32:64-S128"
target triple = "x86_64-pc-linux-gnu"

%struct.VVCPPS = type { ptr, [3 x i8], [6 x [3 x i8]], i16, i16, [1000 x i16], [1000 x i16], i16, i16, i16, i16, i32, i16, i16, i16, i16, ptr, ptr, ptr, ptr, ptr, i16, i16, i16, i16, i16, [1000 x i16], [1000 x i16], [1000 x i16], [1000 x i16] }
%union.AVRefStructOpaque = type { ptr }

; Function Attrs: nounwind uwtable
define internal void @pps_free(ptr %0, ptr noundef %1) #0 {
  %3 = alloca %union.AVRefStructOpaque, align 8
  %4 = alloca ptr, align 8
  %5 = alloca ptr, align 8
  %6 = getelementptr inbounds nuw %union.AVRefStructOpaque, ptr %3, i32 0, i32 0
  store ptr %0, ptr %6, align 8
  store ptr %1, ptr %4, align 8, !tbaa !127
  call void @llvm.lifetime.start.p0(i64 8, ptr %5) #10
  %7 = load ptr, ptr %4, align 8, !tbaa !127
  store ptr %7, ptr %5, align 8, !tbaa !72
  %8 = load ptr, ptr %5, align 8, !tbaa !72
  %9 = getelementptr inbounds nuw %struct.VVCPPS, ptr %8, i32 0, i32 0
  call void @av_refstruct_unref(ptr noundef %9)
  %10 = load ptr, ptr %5, align 8, !tbaa !72
  %11 = getelementptr inbounds nuw %struct.VVCPPS, ptr %10, i32 0, i32 17
  call void @av_freep(ptr noundef %11)
  %12 = load ptr, ptr %5, align 8, !tbaa !72
  %13 = getelementptr inbounds nuw %struct.VVCPPS, ptr %12, i32 0, i32 18
  call void @av_freep(ptr noundef %13)
  %14 = load ptr, ptr %5, align 8, !tbaa !72
  %15 = getelementptr inbounds nuw %struct.VVCPPS, ptr %14, i32 0, i32 19
  call void @av_freep(ptr noundef %15)
  %16 = load ptr, ptr %5, align 8, !tbaa !72
  %17 = getelementptr inbounds nuw %struct.VVCPPS, ptr %16, i32 0, i32 20
  call void @av_freep(ptr noundef %17)
  %18 = load ptr, ptr %5, align 8, !tbaa !72
  %19 = getelementptr inbounds nuw %struct.VVCPPS, ptr %18, i32 0, i32 16
  call void @av_freep(ptr noundef %19)
  call void @llvm.lifetime.end.p0(i64 8, ptr %5) #10
  ret void
}