; Function Attrs: nounwind uwtable
define internal void @pps_free(ptr readnone captures(none) %0, ptr noundef %1) #0 {
  tail call void @av_refstruct_unref(ptr noundef %1) #8
  %3 = getelementptr inbounds nuw i8, ptr %1, i64 4064
  tail call void @av_freep(ptr noundef nonnull %3) #8
  %4 = getelementptr inbounds nuw i8, ptr %1, i64 4072
  tail call void @av_freep(ptr noundef nonnull %4) #8
  %5 = getelementptr inbounds nuw i8, ptr %1, i64 4080
  tail call void @av_freep(ptr noundef nonnull %5) #8
  %6 = getelementptr inbounds nuw i8, ptr %1, i64 4088
  tail call void @av_freep(ptr noundef nonnull %6) #8
  %7 = getelementptr inbounds nuw i8, ptr %1, i64 4056
  tail call void @av_freep(ptr noundef nonnull %7) #8
  ret void
}